; Function Attrs: mustprogress nounwind uwtable
define internal void @_ZN5faiss12_GLOBAL__N_121AQDistanceComputerLUTILb0ELNS_17AdditiveQuantizer13Search_type_tE4EED2Ev(ptr nocapture noundef nonnull align 8 dereferenceable(68) %0) unnamed_addr #0 align 2 personality ptr @__gxx_personality_v0 {
  store ptr getelementptr inbounds ({ [9 x ptr] }, ptr @_ZTVN5faiss12_GLOBAL__N_121AQDistanceComputerLUTILb0ELNS_17AdditiveQuantizer13Search_type_tE4EEE, i64 0, i32 0, i64 2), ptr %0, align 8
  %2 = getelementptr inbounds i8, ptr %0, i64 24
  %3 = load ptr, ptr %2, align 8
  %.not.i.i.i = icmp eq ptr %3, null
  br i1 %.not.i.i.i, label %_ZNSt6vectorIfSaIfEED2Ev.exit, label %4

4:                                                ; preds = %1
  tail call void @_ZdlPv(ptr noundef nonnull %3) #20
  br label %_ZNSt6vectorIfSaIfEED2Ev.exit

_ZNSt6vectorIfSaIfEED2Ev.exit:                    ; preds = %1, %4
  ret void
}